target datalayout = "e-m:e-p270:32:32-p271:32:32-p272:64:64-i64:64-i128:128-f80:128-n8:16:32:64-S128"
target triple = "x86_64-pc-linux-gnu"

; Function Attrs: nounwind uwtable
define i64 @luckyCanonicizer_final_fast_6Vars1(i64 noundef %0, ptr noundef %1, ptr noundef %2, ptr noundef %3) #0 {
  %5 = alloca i64, align 8
  %6 = alloca ptr, align 8
  %7 = alloca ptr, align 8
  %8 = alloca ptr, align 8
  store i64 %0, ptr %5, align 8, !tbaa !13
  store ptr %1, ptr %6, align 8, !tbaa !15
  store ptr %2, ptr %7, align 8, !tbaa !3
  store ptr %3, ptr %8, align 8, !tbaa !15
  %9 = load ptr, ptr %7, align 8, !tbaa !3
  %10 = load ptr, ptr %6, align 8, !tbaa !15
  %11 = call i32 @Kit_TruthSemiCanonicize_Yasha1(ptr noundef %5, i32 noundef 6, ptr noundef %9, ptr noundef %10)
  %12 = load ptr, ptr %8, align 8, !tbaa !15
  store i32 %11, ptr %12, align 4, !tbaa !9
  %13 = load i64, ptr %5, align 8, !tbaa !13
  %14 = load ptr, ptr %6, align 8, !tbaa !15
  %15 = load ptr, ptr %7, align 8, !tbaa !3
  %16 = load ptr, ptr %8, align 8, !tbaa !15
  %17 = call i64 @Extra_Truth6MinimumRoundMany1(i64 noundef %13, ptr noundef %14, ptr noundef %15, ptr noundef %16)
  store i64 %17, ptr %5, align 8, !tbaa !13
  call void @Kit_TruthChangePhase_64bit(ptr noundef %5, i32 noundef 6, i32 noundef 5)
  call void @Kit_TruthChangePhase_64bit(ptr noundef %5, i32 noundef 6, i32 noundef 4)
  call void @Kit_TruthChangePhase_64bit(ptr noundef %5, i32 noundef 6, i32 noundef 3)
  call void @Kit_TruthChangePhase_64bit(ptr noundef %5, i32 noundef 6, i32 noundef 2)
  call void @Kit_TruthChangePhase_64bit(ptr noundef %5, i32 noundef 6, i32 noundef 1)
  call void @Kit_TruthChangePhase_64bit(ptr noundef %5, i32 noundef 6, i32 noundef 0)
  %18 = load ptr, ptr %8, align 8, !tbaa !15
  %19 = load i32, ptr %18, align 4, !tbaa !9
  %20 = xor i32 %19, 63
  store i32 %20, ptr %18, align 4, !tbaa !9
  %21 = load i64, ptr %5, align 8, !tbaa !13
  %22 = load ptr, ptr %6, align 8, !tbaa !15
  %23 = load ptr, ptr %7, align 8, !tbaa !3
  %24 = load ptr, ptr %8, align 8, !tbaa !15
  %25 = call i64 @Extra_Truth6MinimumRoundMany1(i64 noundef %21, ptr noundef %22, ptr noundef %23, ptr noundef %24)
  ret i64 %25
}